; Function Attrs: mustprogress uwtable
define hidden void @_ZN3sat6solver15sort_watch_litsEv(ptr nocapture noundef nonnull readonly align 8 dereferenceable(4408) %this) local_unnamed_addr #3 align 2 {
entry:
  %m_watches = getelementptr inbounds i8, ptr %this, i64 3432
  %0 = load ptr, ptr %m_watches, align 8
  %cmp.i.i = icmp eq ptr %0, null
  br i1 %cmp.i.i, label %for.end, label %_ZN6vectorIS_IN3sat7watchedELb1EjELb1EjE3endEv.exit

_ZN6vectorIS_IN3sat7watchedELb1EjELb1EjE3endEv.exit: ; preds = %entry
  %arrayidx.i.i = getelementptr inbounds i8, ptr %0, i64 -4
  %1 = load i32, ptr %arrayidx.i.i, align 4
  %2 = zext i32 %1 to i64
  %add.ptr.i = getelementptr inbounds %class.vector.53, ptr %0, i64 %2
  %cmp.not10 = icmp eq i32 %1, 0
  br i1 %cmp.not10, label %for.end, label %for.body

for.body:                                         ; preds = %_ZN6vectorIS_IN3sat7watchedELb1EjELb1EjE3endEv.exit, %_ZN6vectorIN3sat7watchedELb1EjE3endEv.exit
  %__begin1.011 = phi ptr [ %incdec.ptr, %_ZN6vectorIN3sat7watchedELb1EjE3endEv.exit ], [ %0, %_ZN6vectorIS_IN3sat7watchedELb1EjELb1EjE3endEv.exit ]
  %3 = load ptr, ptr %__begin1.011, align 8
  %cmp.i.i5 = icmp eq ptr %3, null
  br i1 %cmp.i.i5, label %_ZN6vectorIN3sat7watchedELb1EjE3endEv.exit, label %if.end.i.i6

if.end.i.i6:                                      ; preds = %for.body
  %arrayidx.i.i7 = getelementptr inbounds i8, ptr %3, i64 -4
  %4 = load i32, ptr %arrayidx.i.i7, align 4
  %5 = zext i32 %4 to i64
  br label %_ZN6vectorIN3sat7watchedELb1EjE3endEv.exit

_ZN6vectorIN3sat7watchedELb1EjE3endEv.exit:       ; preds = %for.body, %if.end.i.i6
  %retval.0.i.i8 = phi i64 [ %5, %if.end.i.i6 ], [ 0, %for.body ]
  %add.ptr.i9 = getelementptr inbounds %"class.sat::watched", ptr %3, i64 %retval.0.i.i8
  tail call void @_ZSt13__stable_sortIPN3sat7watchedEN9__gnu_cxx5__ops15_Iter_comp_iterINS0_10watched_ltEEEEvT_S8_T0_(ptr noundef %3, ptr noundef %add.ptr.i9)
  %incdec.ptr = getelementptr inbounds i8, ptr %__begin1.011, i64 8
  %cmp.not = icmp eq ptr %incdec.ptr, %add.ptr.i
  br i1 %cmp.not, label %for.end, label %for.body

for.end:                                          ; preds = %_ZN6vectorIN3sat7watchedELb1EjE3endEv.exit, %entry, %_ZN6vectorIS_IN3sat7watchedELb1EjELb1EjE3endEv.exit
  ret void
}